target datalayout = "e-m:e-p270:32:32-p271:32:32-p272:64:64-i64:64-i128:128-f80:128-n8:16:32:64-S128"
target triple = "x86_64-pc-linux-gnu"

%struct.SurfaceDataRasInfo = type { %struct.SurfaceDataBounds, ptr, i32, i32, i32, i32, ptr, ptr, ptr, ptr, ptr, ptr, i32, %union.anon.0 }
%struct.SurfaceDataBounds = type { i32, i32, i32, i32 }
%union.anon.0 = type { ptr, [56 x i8] }

; Function Attrs: nounwind uwtable
define hidden void @IntBgrToIntArgbScaleConvert(ptr noundef %0, ptr noundef %1, i32 noundef %2, i32 noundef %3, i32 noundef %4, i32 noundef %5, i32 noundef %6, i32 noundef %7, i32 noundef %8, ptr noundef %9, ptr noundef %10, ptr noundef %11, ptr noundef %12) #1 {
  %14 = alloca ptr, align 8
  %15 = alloca ptr, align 8
  %16 = alloca i32, align 4
  %17 = alloca i32, align 4
  %18 = alloca i32, align 4
  %19 = alloca i32, align 4
  %20 = alloca i32, align 4
  %21 = alloca i32, align 4
  %22 = alloca i32, align 4
  %23 = alloca ptr, align 8
  %24 = alloca ptr, align 8
  %25 = alloca ptr, align 8
  %26 = alloca ptr, align 8
  %27 = alloca ptr, align 8
  %28 = alloca ptr, align 8
  %29 = alloca i32, align 4
  %30 = alloca i32, align 4
  %31 = alloca i32, align 4
  %32 = alloca i32, align 4
  %33 = alloca i32, align 4
  %34 = alloca i32, align 4
  %35 = alloca i32, align 4
  store ptr %0, ptr %14, align 8
  store ptr %1, ptr %15, align 8
  store i32 %2, ptr %16, align 4
  store i32 %3, ptr %17, align 4
  store i32 %4, ptr %18, align 4
  store i32 %5, ptr %19, align 4
  store i32 %6, ptr %20, align 4
  store i32 %7, ptr %21, align 4
  store i32 %8, ptr %22, align 4
  store ptr %9, ptr %23, align 8
  store ptr %10, ptr %24, align 8
  store ptr %11, ptr %25, align 8
  store ptr %12, ptr %26, align 8
  br label %36

36:                                               ; preds = %13
  %37 = load ptr, ptr %15, align 8
  store ptr %37, ptr %28, align 8
  %38 = load ptr, ptr %23, align 8
  %39 = getelementptr inbounds %struct.SurfaceDataRasInfo, ptr %38, i32 0, i32 4
  %40 = load i32, ptr %39, align 8
  store i32 %40, ptr %29, align 4
  %41 = load ptr, ptr %24, align 8
  %42 = getelementptr inbounds %struct.SurfaceDataRasInfo, ptr %41, i32 0, i32 4
  %43 = load i32, ptr %42, align 8
  store i32 %43, ptr %30, align 4
  %44 = load i32, ptr %16, align 4
  %45 = mul i32 %44, 4
  %46 = load i32, ptr %30, align 4
  %47 = sub i32 %46, %45
  store i32 %47, ptr %30, align 4
  br label %48

48:                                               ; preds = %109, %36
  %49 = load i32, ptr %16, align 4
  store i32 %49, ptr %31, align 4
  %50 = load i32, ptr %18, align 4
  store i32 %50, ptr %32, align 4
  %51 = load ptr, ptr %14, align 8
  %52 = ptrtoint ptr %51 to i64
  %53 = load i32, ptr %19, align 4
  %54 = load i32, ptr %22, align 4
  %55 = ashr i32 %53, %54
  %56 = sext i32 %55 to i64
  %57 = load i32, ptr %29, align 4
  %58 = sext i32 %57 to i64
  %59 = mul nsw i64 %56, %58
  %60 = add nsw i64 %52, %59
  %61 = inttoptr i64 %60 to ptr
  store ptr %61, ptr %27, align 8
  br label %62

62:                                               ; preds = %95, %48
  %63 = load i32, ptr %32, align 4
  %64 = load i32, ptr %22, align 4
  %65 = ashr i32 %63, %64
  store i32 %65, ptr %33, align 4
  br label %66

66:                                               ; preds = %62
  br label %67

67:                                               ; preds = %66
  %68 = load ptr, ptr %27, align 8
  %69 = load i32, ptr %33, align 4
  %70 = sext i32 %69 to i64
  %71 = getelementptr inbounds i32, ptr %68, i64 %70
  %72 = load i32, ptr %71, align 4
  store i32 %72, ptr %35, align 4
  %73 = load i32, ptr %35, align 4
  %74 = shl i32 %73, 16
  %75 = load i32, ptr %35, align 4
  %76 = and i32 %75, 65280
  %77 = or i32 %74, %76
  %78 = load i32, ptr %35, align 4
  %79 = ashr i32 %78, 16
  %80 = and i32 %79, 255
  %81 = or i32 %77, %80
  store i32 %81, ptr %34, align 4
  br label %82

82:                                               ; preds = %67
  %83 = load i32, ptr %34, align 4
  %84 = or i32 -16777216, %83
  %85 = load ptr, ptr %28, align 8
  %86 = getelementptr inbounds i32, ptr %85, i64 0
  store i32 %84, ptr %86, align 4
  br label %87

87:                                               ; preds = %82
  %88 = load ptr, ptr %28, align 8
  %89 = ptrtoint ptr %88 to i64
  %90 = add nsw i64 %89, 4
  %91 = inttoptr i64 %90 to ptr
  store ptr %91, ptr %28, align 8
  %92 = load i32, ptr %20, align 4
  %93 = load i32, ptr %32, align 4
  %94 = add nsw i32 %93, %92
  store i32 %94, ptr %32, align 4
  br label %95

95:                                               ; preds = %87
  %96 = load i32, ptr %31, align 4
  %97 = add i32 %96, -1
  store i32 %97, ptr %31, align 4
  %98 = icmp ugt i32 %97, 0
  br i1 %98, label %62, label %99, !llvm.loop !17

99:                                               ; preds = %95
  %100 = load ptr, ptr %28, align 8
  %101 = ptrtoint ptr %100 to i64
  %102 = load i32, ptr %30, align 4
  %103 = sext i32 %102 to i64
  %104 = add nsw i64 %101, %103
  %105 = inttoptr i64 %104 to ptr
  store ptr %105, ptr %28, align 8
  %106 = load i32, ptr %21, align 4
  %107 = load i32, ptr %19, align 4
  %108 = add nsw i32 %107, %106
  store i32 %108, ptr %19, align 4
  br label %109

109:                                              ; preds = %99
  %110 = load i32, ptr %17, align 4
  %111 = add i32 %110, -1
  store i32 %111, ptr %17, align 4
  %112 = icmp ugt i32 %111, 0
  br i1 %112, label %48, label %113, !llvm.loop !18

113:                                              ; preds = %109
  br label %114

114:                                              ; preds = %113
  ret void
}