; Function Attrs: nofree norecurse nosync nounwind memory(readwrite, inaccessiblemem: none) uwtable
define hidden void @IntBgrToIntArgbScaleConvert(ptr noundef %0, ptr noundef %1, i32 noundef %2, i32 noundef %3, i32 noundef %4, i32 noundef %5, i32 noundef %6, i32 noundef %7, i32 noundef %8, ptr nocapture noundef readonly %9, ptr nocapture noundef readonly %10, ptr nocapture readnone %11, ptr nocapture readnone %12) #1 {
  %14 = getelementptr inbounds i8, ptr %9, i64 32
  %15 = load i32, ptr %14, align 8
  %16 = getelementptr inbounds i8, ptr %10, i64 32
  %17 = load i32, ptr %16, align 8
  %18 = shl i32 %2, 2
  %19 = sub i32 %17, %18
  %20 = sext i32 %19 to i64
  %21 = ptrtoint ptr %0 to i64
  %22 = sext i32 %15 to i64
  br label %23

23:                                               ; preds = %46, %13
  %.029 = phi ptr [ %1, %13 ], [ %48, %46 ]
  %.028 = phi i32 [ %5, %13 ], [ %49, %46 ]
  %.0 = phi i32 [ %3, %13 ], [ %50, %46 ]
  %24 = ashr i32 %.028, %8
  %25 = sext i32 %24 to i64
  %26 = mul nsw i64 %25, %22
  %27 = add nsw i64 %26, %21
  %28 = inttoptr i64 %27 to ptr
  br label %29

29:                                               ; preds = %29, %23
  %.031 = phi i32 [ %2, %23 ], [ %45, %29 ]
  %.030 = phi i32 [ %4, %23 ], [ %44, %29 ]
  %.1 = phi ptr [ %.029, %23 ], [ %43, %29 ]
  %30 = ashr i32 %.030, %8
  %31 = sext i32 %30 to i64
  %32 = getelementptr inbounds i32, ptr %28, i64 %31
  %33 = load i32, ptr %32, align 4
  %34 = shl i32 %33, 16
  %35 = and i32 %33, 65280
  %36 = or disjoint i32 %34, %35
  %37 = lshr i32 %33, 16
  %38 = and i32 %37, 255
  %39 = or disjoint i32 %36, %38
  %40 = or i32 %39, -16777216
  store i32 %40, ptr %.1, align 4
  %41 = ptrtoint ptr %.1 to i64
  %42 = add nsw i64 %41, 4
  %43 = inttoptr i64 %42 to ptr
  %44 = add nsw i32 %.030, %6
  %45 = add i32 %.031, -1
  %.not = icmp eq i32 %45, 0
  br i1 %.not, label %46, label %29, !llvm.loop !16

46:                                               ; preds = %29
  %47 = add nsw i64 %42, %20
  %48 = inttoptr i64 %47 to ptr
  %49 = add nsw i32 %.028, %7
  %50 = add i32 %.0, -1
  %.not33 = icmp eq i32 %50, 0
  br i1 %.not33, label %51, label %23, !llvm.loop !17

51:                                               ; preds = %46
  ret void
}